target datalayout = "e-m:e-p270:32:32-p271:32:32-p272:64:64-i64:64-i128:128-f80:128-n8:16:32:64-S128"
target triple = "x86_64-pc-linux-gnu"

%class.Register = type { i32 }
%class.LIR_Opr = type { i64 }
%class.XMMRegister = type { i32 }
%class.Address = type { %class.Register, %class.Register, %class.XMMRegister, i32, i32, i8, [3 x i8], %class.RelocationHolder }
%class.RelocationHolder = type { [40 x i8] }
%class.LIR_OpShenandoahCompareAndSwap = type { %class.LIR_Op, %class.LIR_Opr, %class.LIR_Opr, %class.LIR_Opr, %class.LIR_Opr, %class.LIR_Opr }
%class.LIR_Op = type { ptr, %class.LIR_Opr, i16, i16, ptr, i32, i32, ptr }
%class.LIR_Assembler = type { ptr, ptr, ptr, ptr, ptr, ptr, i32, i32, %class.Label }
%class.Label = type <{ i32, [4 x i32], i32, ptr, i8, [7 x i8] }>
%class.Relocation = type <{ ptr, ptr, i32, [4 x i8] }>

@UseCompressedOops = external global i8, align 1
@_ZL9rscratch1 = internal constant %class.Register { i32 10 }, align 4
@_ZL5noreg = internal constant %class.Register { i32 -1 }, align 4
@_ZL6xnoreg = internal constant %class.XMMRegister { i32 -1 }, align 4
@_ZTV10Relocation = external unnamed_addr constant { [11 x ptr] }, align 8

; Function Attrs: mustprogress nounwind uwtable
define linkonce_odr hidden void @_ZN10RelocationC2EN9relocInfo9relocTypeE(ptr noundef nonnull align 8 dereferenceable(20) %0, i32 noundef %1) unnamed_addr #1 comdat align 2 {
  %3 = alloca ptr, align 8
  %4 = alloca i32, align 4
  store ptr %0, ptr %3, align 8
  store i32 %1, ptr %4, align 4
  %5 = load ptr, ptr %3, align 8
  store ptr getelementptr inbounds inrange(-16, 72) ({ [11 x ptr] }, ptr @_ZTV10Relocation, i32 0, i32 0, i32 2), ptr %5, align 8
  %6 = getelementptr inbounds %class.Relocation, ptr %5, i32 0, i32 1
  store ptr null, ptr %6, align 8
  %7 = getelementptr inbounds %class.Relocation, ptr %5, i32 0, i32 2
  %8 = load i32, ptr %4, align 4
  store i32 %8, ptr %7, align 8
  ret void
}

; Function Attrs: mustprogress nounwind uwtable
define linkonce_odr hidden void @_ZN10RelocationC2Ev(ptr noundef nonnull align 8 dereferenceable(20) %0) unnamed_addr #1 comdat align 2 {
  %2 = alloca ptr, align 8
  store ptr %0, ptr %2, align 8
  %3 = load ptr, ptr %2, align 8
  call void @_ZN10RelocationC2EN9relocInfo9relocTypeE(ptr noundef nonnull align 8 dereferenceable(20) %3, i32 noundef 0)
  ret void
}

; Function Attrs: mustprogress nounwind uwtable
define linkonce_odr hidden void @_ZN16RelocationHolder18emplace_relocationI10RelocationJEEEvDpRKT0_(ptr noundef nonnull align 8 dereferenceable(40) %0) #1 comdat align 2 {
  %2 = alloca ptr, align 8
  %3 = alloca ptr, align 8
  store ptr %0, ptr %2, align 8
  %4 = load ptr, ptr %2, align 8
  %5 = getelementptr inbounds %class.RelocationHolder, ptr %4, i32 0, i32 0
  %6 = getelementptr inbounds [40 x i8], ptr %5, i64 0, i64 0
  call void @_ZN10RelocationC2Ev(ptr noundef nonnull align 8 dereferenceable(20) %6)
  store ptr %6, ptr %3, align 8
  ret void
}

; Function Attrs: mustprogress nounwind uwtable
define linkonce_odr hidden void @_ZN16RelocationHolderC2I10RelocationJEEENS_9ConstructIT_EEDpRKT0_(ptr noundef nonnull align 8 dereferenceable(40) %0) unnamed_addr #1 comdat align 2 {
  %2 = alloca ptr, align 8
  store ptr %0, ptr %2, align 8
  %3 = load ptr, ptr %2, align 8
  call void @_ZN16RelocationHolder18emplace_relocationI10RelocationJEEEvDpRKT0_(ptr noundef nonnull align 8 dereferenceable(40) %3)
  ret void
}

; Function Attrs: mustprogress nounwind uwtable
define linkonce_odr hidden noundef i64 @_ZNK7LIR_Opr5valueEv(ptr noundef nonnull align 8 dereferenceable(8) %0) #1 comdat align 2 {
  %2 = alloca ptr, align 8
  store ptr %0, ptr %2, align 8
  %3 = load ptr, ptr %2, align 8
  %4 = getelementptr inbounds %class.LIR_Opr, ptr %3, i32 0, i32 0
  %5 = load i64, ptr %4, align 8
  ret i64 %5
}

; Function Attrs: mustprogress nounwind uwtable
define linkonce_odr hidden void @_ZN16RelocationHolderC2Ev(ptr noundef nonnull align 8 dereferenceable(40) %0) unnamed_addr #1 comdat align 2 {
  %2 = alloca ptr, align 8
  store ptr %0, ptr %2, align 8
  %3 = load ptr, ptr %2, align 8
  call void @_ZN16RelocationHolderC2I10RelocationJEEENS_9ConstructIT_EEDpRKT0_(ptr noundef nonnull align 8 dereferenceable(40) %3)
  ret void
}

; Function Attrs: mustprogress nounwind uwtable
define linkonce_odr hidden noundef zeroext i1 @_ZNK7LIR_Opr16check_value_maskEll(ptr noundef nonnull align 8 dereferenceable(8) %0, i64 noundef %1, i64 noundef %2) #1 comdat align 2 {
  %4 = alloca ptr, align 8
  %5 = alloca i64, align 8
  %6 = alloca i64, align 8
  store ptr %0, ptr %4, align 8
  store i64 %1, ptr %5, align 8
  store i64 %2, ptr %6, align 8
  %7 = load ptr, ptr %4, align 8
  %8 = call noundef i64 @_ZNK7LIR_Opr5valueEv(ptr noundef nonnull align 8 dereferenceable(8) %7)
  %9 = load i64, ptr %5, align 8
  %10 = and i64 %8, %9
  %11 = load i64, ptr %6, align 8
  %12 = icmp eq i64 %10, %11
  ret i1 %12
}

; Function Attrs: mustprogress nounwind uwtable
define linkonce_odr hidden void @_ZNK7LIR_Opr13validate_typeEv(ptr noundef nonnull align 8 dereferenceable(8) %0) #1 comdat align 2 {
  %2 = alloca ptr, align 8
  store ptr %0, ptr %2, align 8
  ret void
}

; Function Attrs: mustprogress nounwind uwtable
define linkonce_odr hidden void @_ZN7AddressC2E8Registeri(ptr noundef nonnull align 8 dereferenceable(64) %0, i32 %1, i32 noundef %2) unnamed_addr #1 comdat align 2 {
  %4 = alloca %class.Register, align 4
  %5 = alloca ptr, align 8
  %6 = alloca i32, align 4
  %7 = getelementptr inbounds %class.Register, ptr %4, i32 0, i32 0
  store i32 %1, ptr %7, align 4
  store ptr %0, ptr %5, align 8
  store i32 %2, ptr %6, align 4
  %8 = load ptr, ptr %5, align 8
  %9 = getelementptr inbounds %class.Address, ptr %8, i32 0, i32 0
  call void @llvm.memcpy.p0.p0.i64(ptr align 8 %9, ptr align 4 %4, i64 4, i1 false)
  %10 = getelementptr inbounds %class.Address, ptr %8, i32 0, i32 1
  call void @llvm.memcpy.p0.p0.i64(ptr align 4 %10, ptr align 4 @_ZL5noreg, i64 4, i1 false)
  %11 = getelementptr inbounds %class.Address, ptr %8, i32 0, i32 2
  call void @llvm.memcpy.p0.p0.i64(ptr align 8 %11, ptr align 4 @_ZL6xnoreg, i64 4, i1 false)
  %12 = getelementptr inbounds %class.Address, ptr %8, i32 0, i32 3
  store i32 -1, ptr %12, align 4
  %13 = getelementptr inbounds %class.Address, ptr %8, i32 0, i32 4
  %14 = load i32, ptr %6, align 4
  store i32 %14, ptr %13, align 8
  %15 = getelementptr inbounds %class.Address, ptr %8, i32 0, i32 5
  store i8 0, ptr %15, align 4
  %16 = getelementptr inbounds %class.Address, ptr %8, i32 0, i32 7
  call void @_ZN16RelocationHolderC2Ev(ptr noundef nonnull align 8 dereferenceable(40) %16)
  ret void
}

; Function Attrs: mustprogress nounwind uwtable
define linkonce_odr hidden noundef ptr @_ZNK13LIR_Assembler4masmEv(ptr noundef nonnull align 8 dereferenceable(96) %0) #1 comdat align 2 {
  %2 = alloca ptr, align 8
  store ptr %0, ptr %2, align 8
  %3 = load ptr, ptr %2, align 8
  %4 = getelementptr inbounds %class.LIR_Assembler, ptr %3, i32 0, i32 0
  %5 = load ptr, ptr %4, align 8
  ret ptr %5
}

; Function Attrs: mustprogress nounwind uwtable
define linkonce_odr hidden i64 @_ZNK6LIR_Op10result_oprEv(ptr noundef nonnull align 8 dereferenceable(48) %0) #1 comdat align 2 {
  %2 = alloca %class.LIR_Opr, align 8
  %3 = alloca ptr, align 8
  store ptr %0, ptr %3, align 8
  %4 = load ptr, ptr %3, align 8
  %5 = getelementptr inbounds %class.LIR_Op, ptr %4, i32 0, i32 1
  call void @llvm.memcpy.p0.p0.i64(ptr align 8 %2, ptr align 8 %5, i64 8, i1 false)
  %6 = getelementptr inbounds %class.LIR_Opr, ptr %2, i32 0, i32 0
  %7 = load i64, ptr %6, align 8
  ret i64 %7
}

; Function Attrs: mustprogress nounwind uwtable
define linkonce_odr hidden noundef zeroext i1 @_ZNK7LIR_Opr13is_single_cpuEv(ptr noundef nonnull align 8 dereferenceable(8) %0) #1 comdat align 2 {
  %2 = alloca ptr, align 8
  store ptr %0, ptr %2, align 8
  %3 = load ptr, ptr %2, align 8
  call void @_ZNK7LIR_Opr13validate_typeEv(ptr noundef nonnull align 8 dereferenceable(8) %3)
  %4 = call noundef zeroext i1 @_ZNK7LIR_Opr16check_value_maskEll(ptr noundef nonnull align 8 dereferenceable(8) %3, i64 noundef 391, i64 noundef 3)
  ret i1 %4
}

; Function Attrs: mustprogress nounwind uwtable
define linkonce_odr hidden noundef ptr @_ZN7LIR_OprptEv(ptr noundef nonnull align 8 dereferenceable(8) %0) #1 comdat align 2 {
  %2 = alloca ptr, align 8
  store ptr %0, ptr %2, align 8
  %3 = load ptr, ptr %2, align 8
  ret ptr %3
}

; Function Attrs: mustprogress nounwind uwtable
define hidden void @_ZN30LIR_OpShenandoahCompareAndSwap9emit_codeEP13LIR_Assembler(ptr noundef nonnull align 8 dereferenceable(88) %0, ptr noundef %1) unnamed_addr #1 align 2 {
  %3 = alloca ptr, align 8
  %4 = alloca ptr, align 8
  %5 = alloca %class.Register, align 4
  %6 = alloca %class.Register, align 4
  %7 = alloca %class.Register, align 4
  %8 = alloca %class.Register, align 4
  %9 = alloca %class.Register, align 4
  %10 = alloca %class.Register, align 4
  %11 = alloca %class.LIR_Opr, align 8
  %12 = alloca %class.Register, align 4
  %13 = alloca %class.Register, align 4
  %14 = alloca %class.Register, align 4
  %15 = alloca %class.Register, align 4
  %16 = alloca %class.Register, align 4
  %17 = alloca %class.Register, align 4
  %18 = alloca %class.Register, align 4
  %19 = alloca %class.Address, align 8
  %20 = alloca %class.Register, align 4
  %21 = alloca %class.Register, align 4
  %22 = alloca %class.Register, align 4
  %23 = alloca %class.Register, align 4
  %24 = alloca %class.Register, align 4
  store ptr %0, ptr %3, align 8
  store ptr %1, ptr %4, align 8
  %25 = load ptr, ptr %3, align 8
  %26 = getelementptr inbounds %class.LIR_OpShenandoahCompareAndSwap, ptr %25, i32 0, i32 1
  %27 = call noundef ptr @_ZN7LIR_OprptEv(ptr noundef nonnull align 8 dereferenceable(8) %26)
  %28 = call noundef zeroext i1 @_ZNK7LIR_Opr13is_single_cpuEv(ptr noundef nonnull align 8 dereferenceable(8) %27)
  br i1 %28, label %29, label %34

29:                                               ; preds = %2
  %30 = getelementptr inbounds %class.LIR_OpShenandoahCompareAndSwap, ptr %25, i32 0, i32 1
  %31 = call noundef ptr @_ZN7LIR_OprptEv(ptr noundef nonnull align 8 dereferenceable(8) %30)
  %32 = call i32 @_ZNK7LIR_Opr11as_registerEv(ptr noundef nonnull align 8 dereferenceable(8) %31)
  %33 = getelementptr inbounds %class.Register, ptr %5, i32 0, i32 0
  store i32 %32, ptr %33, align 4
  br label %39

34:                                               ; preds = %2
  %35 = getelementptr inbounds %class.LIR_OpShenandoahCompareAndSwap, ptr %25, i32 0, i32 1
  %36 = call noundef ptr @_ZN7LIR_OprptEv(ptr noundef nonnull align 8 dereferenceable(8) %35)
  %37 = call i32 @_ZNK7LIR_Opr14as_register_loEv(ptr noundef nonnull align 8 dereferenceable(8) %36)
  %38 = getelementptr inbounds %class.Register, ptr %5, i32 0, i32 0
  store i32 %37, ptr %38, align 4
  br label %39

39:                                               ; preds = %34, %29
  %40 = getelementptr inbounds %class.LIR_OpShenandoahCompareAndSwap, ptr %25, i32 0, i32 3
  %41 = call noundef ptr @_ZN7LIR_OprptEv(ptr noundef nonnull align 8 dereferenceable(8) %40)
  %42 = call i32 @_ZNK7LIR_Opr11as_registerEv(ptr noundef nonnull align 8 dereferenceable(8) %41)
  %43 = getelementptr inbounds %class.Register, ptr %6, i32 0, i32 0
  store i32 %42, ptr %43, align 4
  %44 = getelementptr inbounds %class.LIR_OpShenandoahCompareAndSwap, ptr %25, i32 0, i32 2
  %45 = call noundef ptr @_ZN7LIR_OprptEv(ptr noundef nonnull align 8 dereferenceable(8) %44)
  %46 = call i32 @_ZNK7LIR_Opr11as_registerEv(ptr noundef nonnull align 8 dereferenceable(8) %45)
  %47 = getelementptr inbounds %class.Register, ptr %7, i32 0, i32 0
  store i32 %46, ptr %47, align 4
  %48 = getelementptr inbounds %class.LIR_OpShenandoahCompareAndSwap, ptr %25, i32 0, i32 4
  %49 = call noundef ptr @_ZN7LIR_OprptEv(ptr noundef nonnull align 8 dereferenceable(8) %48)
  %50 = call i32 @_ZNK7LIR_Opr11as_registerEv(ptr noundef nonnull align 8 dereferenceable(8) %49)
  %51 = getelementptr inbounds %class.Register, ptr %8, i32 0, i32 0
  store i32 %50, ptr %51, align 4
  %52 = getelementptr inbounds %class.LIR_OpShenandoahCompareAndSwap, ptr %25, i32 0, i32 5
  %53 = call noundef ptr @_ZN7LIR_OprptEv(ptr noundef nonnull align 8 dereferenceable(8) %52)
  %54 = call i32 @_ZNK7LIR_Opr11as_registerEv(ptr noundef nonnull align 8 dereferenceable(8) %53)
  %55 = getelementptr inbounds %class.Register, ptr %9, i32 0, i32 0
  store i32 %54, ptr %55, align 4
  %56 = call i64 @_ZNK6LIR_Op10result_oprEv(ptr noundef nonnull align 8 dereferenceable(48) %25)
  %57 = getelementptr inbounds %class.LIR_Opr, ptr %11, i32 0, i32 0
  store i64 %56, ptr %57, align 8
  %58 = call noundef ptr @_ZN7LIR_OprptEv(ptr noundef nonnull align 8 dereferenceable(8) %11)
  %59 = call i32 @_ZNK7LIR_Opr11as_registerEv(ptr noundef nonnull align 8 dereferenceable(8) %58)
  %60 = getelementptr inbounds %class.Register, ptr %10, i32 0, i32 0
  store i32 %59, ptr %60, align 4
  %61 = call noundef ptr @_ZN20ShenandoahBarrierSet9assemblerEv()
  %62 = load ptr, ptr %4, align 8
  %63 = call noundef ptr @_ZNK13LIR_Assembler4masmEv(ptr noundef nonnull align 8 dereferenceable(96) %62)
  call void @llvm.memcpy.p0.p0.i64(ptr align 4 %12, ptr align 4 %6, i64 4, i1 false)
  call void @llvm.memcpy.p0.p0.i64(ptr align 4 %13, ptr align 4 %8, i64 4, i1 false)
  %64 = getelementptr inbounds %class.Register, ptr %12, i32 0, i32 0
  %65 = load i32, ptr %64, align 4
  %66 = getelementptr inbounds %class.Register, ptr %13, i32 0, i32 0
  %67 = load i32, ptr %66, align 4
  call void @_ZN29ShenandoahBarrierSetAssembler10iu_barrierEP14MacroAssembler8RegisterS2_(ptr noundef nonnull align 8 dereferenceable(8) %61, ptr noundef %63, i32 %65, i32 %67)
  %68 = load i8, ptr @UseCompressedOops, align 1
  %69 = trunc i8 %68 to i1
  br i1 %69, label %70, label %85

70:                                               ; preds = %39
  %71 = load ptr, ptr %4, align 8
  %72 = call noundef ptr @_ZNK13LIR_Assembler4masmEv(ptr noundef nonnull align 8 dereferenceable(96) %71)
  call void @llvm.memcpy.p0.p0.i64(ptr align 4 %14, ptr align 4 %7, i64 4, i1 false)
  %73 = getelementptr inbounds %class.Register, ptr %14, i32 0, i32 0
  %74 = load i32, ptr %73, align 4
  call void @_ZN14MacroAssembler15encode_heap_oopE8Register(ptr noundef nonnull align 8 dereferenceable(40) %72, i32 %74)
  %75 = load ptr, ptr %4, align 8
  %76 = call noundef ptr @_ZNK13LIR_Assembler4masmEv(ptr noundef nonnull align 8 dereferenceable(96) %75)
  call void @llvm.memcpy.p0.p0.i64(ptr align 4 %15, ptr align 4 @_ZL9rscratch1, i64 4, i1 false)
  call void @llvm.memcpy.p0.p0.i64(ptr align 4 %16, ptr align 4 %6, i64 4, i1 false)
  %77 = getelementptr inbounds %class.Register, ptr %15, i32 0, i32 0
  %78 = load i32, ptr %77, align 4
  %79 = getelementptr inbounds %class.Register, ptr %16, i32 0, i32 0
  %80 = load i32, ptr %79, align 4
  call void @_ZN9Assembler3movE8RegisterS0_(ptr noundef nonnull align 8 dereferenceable(40) %76, i32 %78, i32 %80)
  %81 = load ptr, ptr %4, align 8
  %82 = call noundef ptr @_ZNK13LIR_Assembler4masmEv(ptr noundef nonnull align 8 dereferenceable(96) %81)
  call void @llvm.memcpy.p0.p0.i64(ptr align 4 %17, ptr align 4 @_ZL9rscratch1, i64 4, i1 false)
  %83 = getelementptr inbounds %class.Register, ptr %17, i32 0, i32 0
  %84 = load i32, ptr %83, align 4
  call void @_ZN14MacroAssembler15encode_heap_oopE8Register(ptr noundef nonnull align 8 dereferenceable(40) %82, i32 %84)
  call void @llvm.memcpy.p0.p0.i64(ptr align 4 %6, ptr align 4 @_ZL9rscratch1, i64 4, i1 false)
  br label %85

85:                                               ; preds = %70, %39
  %86 = call noundef ptr @_ZN20ShenandoahBarrierSet9assemblerEv()
  %87 = load ptr, ptr %4, align 8
  %88 = call noundef ptr @_ZNK13LIR_Assembler4masmEv(ptr noundef nonnull align 8 dereferenceable(96) %87)
  call void @llvm.memcpy.p0.p0.i64(ptr align 4 %18, ptr align 4 %10, i64 4, i1 false)
  call void @llvm.memcpy.p0.p0.i64(ptr align 4 %20, ptr align 4 %5, i64 4, i1 false)
  %89 = getelementptr inbounds %class.Register, ptr %20, i32 0, i32 0
  %90 = load i32, ptr %89, align 4
  call void @_ZN7AddressC2E8Registeri(ptr noundef nonnull align 8 dereferenceable(64) %19, i32 %90, i32 noundef 0)
  call void @llvm.memcpy.p0.p0.i64(ptr align 4 %21, ptr align 4 %7, i64 4, i1 false)
  call void @llvm.memcpy.p0.p0.i64(ptr align 4 %22, ptr align 4 %6, i64 4, i1 false)
  call void @llvm.memcpy.p0.p0.i64(ptr align 4 %23, ptr align 4 %8, i64 4, i1 false)
  call void @llvm.memcpy.p0.p0.i64(ptr align 4 %24, ptr align 4 %9, i64 4, i1 false)
  %91 = getelementptr inbounds %class.Register, ptr %18, i32 0, i32 0
  %92 = load i32, ptr %91, align 4
  %93 = getelementptr inbounds %class.Register, ptr %21, i32 0, i32 0
  %94 = load i32, ptr %93, align 4
  %95 = getelementptr inbounds %class.Register, ptr %22, i32 0, i32 0
  %96 = load i32, ptr %95, align 4
  %97 = getelementptr inbounds %class.Register, ptr %23, i32 0, i32 0
  %98 = load i32, ptr %97, align 4
  %99 = getelementptr inbounds %class.Register, ptr %24, i32 0, i32 0
  %100 = load i32, ptr %99, align 4
  call void @_ZN29ShenandoahBarrierSetAssembler11cmpxchg_oopEP14MacroAssembler8Register7AddressS2_S2_bS2_S2_(ptr noundef nonnull align 8 dereferenceable(8) %86, ptr noundef %88, i32 %92, ptr noundef %19, i32 %94, i32 %96, i1 noundef zeroext false, i32 %98, i32 %100)
  ret void
}