; Function Attrs: mustprogress nounwind uwtable
define hidden void @_ZN30LIR_OpShenandoahCompareAndSwap9emit_codeEP13LIR_Assembler(ptr noundef nonnull align 8 dereferenceable(88) %0, ptr nocapture noundef readonly %1) unnamed_addr #0 align 2 {
  %3 = alloca %class.LIR_Opr, align 8
  %4 = alloca %class.Address, align 8
  %5 = getelementptr inbounds i8, ptr %0, i64 48
  %6 = load i64, ptr %5, align 8
  %7 = and i64 %6, 391
  %8 = icmp eq i64 %7, 3
  br i1 %8, label %9, label %11

9:                                                ; preds = %2
  %10 = tail call i32 @_ZNK7LIR_Opr11as_registerEv(ptr noundef nonnull align 8 dereferenceable(8) %5) #4
  br label %13

11:                                               ; preds = %2
  %12 = tail call i32 @_ZNK7LIR_Opr14as_register_loEv(ptr noundef nonnull align 8 dereferenceable(8) %5) #4
  br label %13

13:                                               ; preds = %11, %9
  %.sroa.021.0 = phi i32 [ %10, %9 ], [ %12, %11 ]
  %14 = getelementptr inbounds i8, ptr %0, i64 64
  %15 = tail call i32 @_ZNK7LIR_Opr11as_registerEv(ptr noundef nonnull align 8 dereferenceable(8) %14) #4
  %16 = getelementptr inbounds i8, ptr %0, i64 56
  %17 = tail call i32 @_ZNK7LIR_Opr11as_registerEv(ptr noundef nonnull align 8 dereferenceable(8) %16) #4
  %18 = getelementptr inbounds i8, ptr %0, i64 72
  %19 = tail call i32 @_ZNK7LIR_Opr11as_registerEv(ptr noundef nonnull align 8 dereferenceable(8) %18) #4
  %20 = getelementptr inbounds i8, ptr %0, i64 80
  %21 = tail call i32 @_ZNK7LIR_Opr11as_registerEv(ptr noundef nonnull align 8 dereferenceable(8) %20) #4
  %22 = getelementptr inbounds i8, ptr %0, i64 8
  %.sroa.0.0.copyload.i = load i64, ptr %22, align 8
  store i64 %.sroa.0.0.copyload.i, ptr %3, align 8
  %23 = call i32 @_ZNK7LIR_Opr11as_registerEv(ptr noundef nonnull align 8 dereferenceable(8) %3) #4
  %24 = call noundef ptr @_ZN20ShenandoahBarrierSet9assemblerEv() #4
  %25 = load ptr, ptr %1, align 8
  call void @_ZN29ShenandoahBarrierSetAssembler10iu_barrierEP14MacroAssembler8RegisterS2_(ptr noundef nonnull align 8 dereferenceable(8) %24, ptr noundef %25, i32 %15, i32 %19) #4
  %26 = load i8, ptr @UseCompressedOops, align 1
  %27 = trunc i8 %26 to i1
  br i1 %27, label %28, label %32

28:                                               ; preds = %13
  %29 = load ptr, ptr %1, align 8
  call void @_ZN14MacroAssembler15encode_heap_oopE8Register(ptr noundef nonnull align 8 dereferenceable(40) %29, i32 %17) #4
  %30 = load ptr, ptr %1, align 8
  call void @_ZN9Assembler3movE8RegisterS0_(ptr noundef nonnull align 8 dereferenceable(40) %30, i32 10, i32 %15) #4
  %31 = load ptr, ptr %1, align 8
  call void @_ZN14MacroAssembler15encode_heap_oopE8Register(ptr noundef nonnull align 8 dereferenceable(40) %31, i32 10) #4
  br label %32

32:                                               ; preds = %28, %13
  %.sroa.018.0 = phi i32 [ 10, %28 ], [ %15, %13 ]
  %33 = call noundef ptr @_ZN20ShenandoahBarrierSet9assemblerEv() #4
  %34 = load ptr, ptr %1, align 8
  store i32 %.sroa.021.0, ptr %4, align 8
  %35 = getelementptr inbounds i8, ptr %4, i64 4
  store <4 x i32> <i32 -1, i32 -1, i32 -1, i32 0>, ptr %35, align 4
  %36 = getelementptr inbounds i8, ptr %4, i64 20
  store i8 0, ptr %36, align 4
  %37 = getelementptr inbounds i8, ptr %4, i64 24
  store ptr getelementptr inbounds inrange(-16, 72) (i8, ptr @_ZTV10Relocation, i64 16), ptr %37, align 8
  %38 = getelementptr inbounds i8, ptr %4, i64 32
  store ptr null, ptr %38, align 8
  %39 = getelementptr inbounds i8, ptr %4, i64 40
  store i32 0, ptr %39, align 8
  call void @_ZN29ShenandoahBarrierSetAssembler11cmpxchg_oopEP14MacroAssembler8Register7AddressS2_S2_bS2_S2_(ptr noundef nonnull align 8 dereferenceable(8) %33, ptr noundef %34, i32 %23, ptr noundef nonnull %4, i32 %17, i32 %.sroa.018.0, i1 noundef zeroext false, i32 %19, i32 %21) #4
  ret void
}